target datalayout = "e-m:e-p270:32:32-p271:32:32-p272:64:64-i64:64-i128:128-f80:128-n8:16:32:64-S128"
target triple = "x86_64-pc-linux-gnu"

%"class.cv::Size_" = type { i32, i32 }
%"class.cv::Point_" = type { float, float }
%"class.cv::Point_.19" = type { i32, i32 }
%"class.cv::details::Ellipse" = type { %"class.cv::Point_", %"class.cv::Size_.23", float, float, float }
%"class.cv::Size_.23" = type { float, float }

; Function Attrs: alwaysinline mustprogress nounwind uwtable
define internal noundef i32 @_ZL14_mm_cvtss_si32Dv4_f(<4 x float> noundef %0) #21 {
  %2 = alloca <4 x float>, align 16
  store <4 x float> %0, ptr %2, align 16, !tbaa !69
  %3 = load <4 x float>, ptr %2, align 16, !tbaa !69
  %4 = call i32 @llvm.x86.sse.cvtss2si(<4 x float> %3)
  ret i32 %4
}

; Function Attrs: alwaysinline mustprogress nounwind uwtable
define internal noundef <4 x float> @_ZL10_mm_set_ssf(float noundef %0) #21 {
  %2 = alloca float, align 4
  %3 = alloca <4 x float>, align 16
  store float %0, ptr %2, align 4, !tbaa !7
  %4 = load float, ptr %2, align 4, !tbaa !7
  %5 = insertelement <4 x float> poison, float %4, i32 0
  %6 = insertelement <4 x float> %5, float 0.000000e+00, i32 1
  %7 = insertelement <4 x float> %6, float 0.000000e+00, i32 2
  %8 = insertelement <4 x float> %7, float 0.000000e+00, i32 3
  store <4 x float> %8, ptr %3, align 16, !tbaa !69
  %9 = load <4 x float>, ptr %3, align 16, !tbaa !69
  ret <4 x float> %9
}

; Function Attrs: inlinehint mustprogress uwtable
define internal noundef i32 @_ZL7cvRoundf(float noundef %0) #14 {
  %2 = alloca float, align 4
  %3 = alloca <4 x float>, align 16
  store float %0, ptr %2, align 4, !tbaa !7
  call void @llvm.lifetime.start.p0(i64 16, ptr %3) #3
  %4 = load float, ptr %2, align 4, !tbaa !7
  %5 = call noundef <4 x float> @_ZL10_mm_set_ssf(float noundef %4)
  store <4 x float> %5, ptr %3, align 16, !tbaa !69
  %6 = load <4 x float>, ptr %3, align 16, !tbaa !69
  %7 = call noundef i32 @_ZL14_mm_cvtss_si32Dv4_f(<4 x float> noundef %6)
  call void @llvm.lifetime.end.p0(i64 16, ptr %3) #3
  ret i32 %7
}

; Function Attrs: inlinehint mustprogress nounwind uwtable
define linkonce_odr hidden void @_ZN2cv5Size_IiEC2Eii(ptr noundef nonnull align 4 dereferenceable(8) %0, i32 noundef %1, i32 noundef %2) unnamed_addr #6 comdat align 2 {
  %4 = alloca ptr, align 8
  %5 = alloca i32, align 4
  %6 = alloca i32, align 4
  store ptr %0, ptr %4, align 8, !tbaa !151
  store i32 %1, ptr %5, align 4, !tbaa !3
  store i32 %2, ptr %6, align 4, !tbaa !3
  %7 = load ptr, ptr %4, align 8
  %8 = getelementptr inbounds nuw %"class.cv::Size_", ptr %7, i32 0, i32 0
  %9 = load i32, ptr %5, align 4, !tbaa !3
  store i32 %9, ptr %8, align 4, !tbaa !35
  %10 = getelementptr inbounds nuw %"class.cv::Size_", ptr %7, i32 0, i32 1
  %11 = load i32, ptr %6, align 4, !tbaa !3
  store i32 %11, ptr %10, align 4, !tbaa !39
  ret void
}

; Function Attrs: inlinehint mustprogress nounwind uwtable
define linkonce_odr hidden void @_ZN2cv6Point_IiEC2Eii(ptr noundef nonnull align 4 dereferenceable(8) %0, i32 noundef %1, i32 noundef %2) unnamed_addr #6 comdat align 2 {
  %4 = alloca ptr, align 8
  %5 = alloca i32, align 4
  %6 = alloca i32, align 4
  store ptr %0, ptr %4, align 8, !tbaa !158
  store i32 %1, ptr %5, align 4, !tbaa !3
  store i32 %2, ptr %6, align 4, !tbaa !3
  %7 = load ptr, ptr %4, align 8
  %8 = getelementptr inbounds nuw %"class.cv::Point_.19", ptr %7, i32 0, i32 0
  %9 = load i32, ptr %5, align 4, !tbaa !3
  store i32 %9, ptr %8, align 4, !tbaa !134
  %10 = getelementptr inbounds nuw %"class.cv::Point_.19", ptr %7, i32 0, i32 1
  %11 = load i32, ptr %6, align 4, !tbaa !3
  store i32 %11, ptr %10, align 4, !tbaa !138
  ret void
}

; Function Attrs: inlinehint mustprogress uwtable
define internal noundef i32 @_ZN2cvL13saturate_castIiEET_f(float noundef %0) #12 {
  %2 = alloca float, align 4
  store float %0, ptr %2, align 4, !tbaa !7
  %3 = load float, ptr %2, align 4, !tbaa !7
  %4 = call noundef i32 @_ZL7cvRoundf(float noundef %3)
  ret i32 %4
}

; Function Attrs: inlinehint mustprogress uwtable
define linkonce_odr hidden i64 @_ZNK2cv5Size_IfEcvNS0_IT_EEIiEEv(ptr noundef nonnull align 4 dereferenceable(8) %0) #12 comdat align 2 {
  %2 = alloca %"class.cv::Size_", align 4
  %3 = alloca ptr, align 8
  store ptr %0, ptr %3, align 8, !tbaa !198
  %4 = load ptr, ptr %3, align 8
  %5 = getelementptr inbounds nuw %"class.cv::Size_.23", ptr %4, i32 0, i32 0
  %6 = load float, ptr %5, align 4, !tbaa !200
  %7 = call noundef i32 @_ZN2cvL13saturate_castIiEET_f(float noundef %6)
  %8 = getelementptr inbounds nuw %"class.cv::Size_.23", ptr %4, i32 0, i32 1
  %9 = load float, ptr %8, align 4, !tbaa !201
  %10 = call noundef i32 @_ZN2cvL13saturate_castIiEET_f(float noundef %9)
  call void @_ZN2cv5Size_IiEC2Eii(ptr noundef nonnull align 4 dereferenceable(8) %2, i32 noundef %7, i32 noundef %10)
  %11 = load i64, ptr %2, align 4
  ret i64 %11
}

; Function Attrs: inlinehint mustprogress uwtable
define linkonce_odr hidden i64 @_ZNK2cv6Point_IfEcvNS0_IT_EEIiEEv(ptr noundef nonnull align 4 dereferenceable(8) %0) #12 comdat align 2 {
  %2 = alloca %"class.cv::Point_.19", align 4
  %3 = alloca ptr, align 8
  store ptr %0, ptr %3, align 8, !tbaa !42
  %4 = load ptr, ptr %3, align 8
  %5 = getelementptr inbounds nuw %"class.cv::Point_", ptr %4, i32 0, i32 0
  %6 = load float, ptr %5, align 4, !tbaa !44
  %7 = call noundef i32 @_ZN2cvL13saturate_castIiEET_f(float noundef %6)
  %8 = getelementptr inbounds nuw %"class.cv::Point_", ptr %4, i32 0, i32 1
  %9 = load float, ptr %8, align 4, !tbaa !46
  %10 = call noundef i32 @_ZN2cvL13saturate_castIiEET_f(float noundef %9)
  call void @_ZN2cv6Point_IiEC2Eii(ptr noundef nonnull align 4 dereferenceable(8) %2, i32 noundef %7, i32 noundef %10)
  %11 = load i64, ptr %2, align 4
  ret i64 %11
}

; Function Attrs: mustprogress uwtable
define hidden void @_ZNK2cv7details7Ellipse4drawERKNS_17_InputOutputArrayERKNS_7Scalar_IdEE(ptr noundef nonnull align 4 dereferenceable(28) %0, ptr noundef nonnull align 8 dereferenceable(24) %1, ptr noundef nonnull align 8 dereferenceable(32) %2) #5 align 2 {
  %4 = alloca ptr, align 8
  %5 = alloca ptr, align 8
  %6 = alloca ptr, align 8
  %7 = alloca %"class.cv::Point_.19", align 4
  %8 = alloca %"class.cv::Size_", align 4
  store ptr %0, ptr %4, align 8, !tbaa !191
  store ptr %1, ptr %5, align 8, !tbaa !202
  store ptr %2, ptr %6, align 8, !tbaa !63
  %9 = load ptr, ptr %4, align 8
  %10 = load ptr, ptr %5, align 8, !tbaa !202
  %11 = getelementptr inbounds nuw %"class.cv::details::Ellipse", ptr %9, i32 0, i32 0
  %12 = call i64 @_ZNK2cv6Point_IfEcvNS0_IT_EEIiEEv(ptr noundef nonnull align 4 dereferenceable(8) %11)
  store i64 %12, ptr %7, align 4
  %13 = getelementptr inbounds nuw %"class.cv::details::Ellipse", ptr %9, i32 0, i32 1
  %14 = call i64 @_ZNK2cv5Size_IfEcvNS0_IT_EEIiEEv(ptr noundef nonnull align 4 dereferenceable(8) %13)
  store i64 %14, ptr %8, align 4
  %15 = getelementptr inbounds nuw %"class.cv::details::Ellipse", ptr %9, i32 0, i32 2
  %16 = load float, ptr %15, align 4, !tbaa !193
  %17 = fpext float %16 to double
  %18 = fdiv double %17, 0x400921FB54442D18
  %19 = fneg double %18
  %20 = call double @llvm.fmuladd.f64(double %19, double 1.800000e+02, double 3.600000e+02)
  %21 = load ptr, ptr %6, align 8, !tbaa !63
  %22 = load i64, ptr %7, align 4
  %23 = load i64, ptr %8, align 4
  call void @_ZN2cv7ellipseERKNS_17_InputOutputArrayENS_6Point_IiEENS_5Size_IiEEdddRKNS_7Scalar_IdEEiii(ptr noundef nonnull align 8 dereferenceable(24) %10, i64 %22, i64 %23, double noundef %20, double noundef 0.000000e+00, double noundef 3.600000e+02, ptr noundef nonnull align 8 dereferenceable(32) %21, i32 noundef 1, i32 noundef 8, i32 noundef 0)
  ret void
}