; Function Attrs: mustprogress uwtable
define hidden void @_ZNK2cv7details7Ellipse4drawERKNS_17_InputOutputArrayERKNS_7Scalar_IdEE(ptr noundef nonnull readonly align 4 captures(none) dereferenceable(28) %0, ptr noundef nonnull align 8 dereferenceable(24) %1, ptr noundef nonnull align 8 dereferenceable(32) %2) local_unnamed_addr #13 align 2 {
  %4 = load <4 x float>, ptr %0, align 4
  %5 = tail call noundef i32 @llvm.x86.sse.cvtss2si(<4 x float> %4)
  %6 = getelementptr inbounds nuw i8, ptr %0, i64 4
  %7 = load <4 x float>, ptr %6, align 4
  %8 = tail call noundef i32 @llvm.x86.sse.cvtss2si(<4 x float> %7)
  %.sroa.2.0.insert.ext.i = zext i32 %8 to i64
  %.sroa.2.0.insert.shift.i = shl nuw i64 %.sroa.2.0.insert.ext.i, 32
  %.sroa.0.0.insert.ext.i = zext i32 %5 to i64
  %.sroa.0.0.insert.insert.i = or disjoint i64 %.sroa.2.0.insert.shift.i, %.sroa.0.0.insert.ext.i
  %9 = getelementptr inbounds nuw i8, ptr %0, i64 8
  %10 = load <4 x float>, ptr %9, align 4
  %11 = tail call noundef i32 @llvm.x86.sse.cvtss2si(<4 x float> %10)
  %12 = getelementptr inbounds nuw i8, ptr %0, i64 12
  %13 = load <4 x float>, ptr %12, align 4
  %14 = tail call noundef i32 @llvm.x86.sse.cvtss2si(<4 x float> %13)
  %.sroa.2.0.insert.ext.i4 = zext i32 %14 to i64
  %.sroa.2.0.insert.shift.i5 = shl nuw i64 %.sroa.2.0.insert.ext.i4, 32
  %.sroa.0.0.insert.ext.i6 = zext i32 %11 to i64
  %.sroa.0.0.insert.insert.i7 = or disjoint i64 %.sroa.2.0.insert.shift.i5, %.sroa.0.0.insert.ext.i6
  %15 = extractelement <4 x float> %13, i64 1
  %16 = fpext float %15 to double
  %17 = fdiv double %16, 0xC00921FB54442D18
  %18 = tail call double @llvm.fmuladd.f64(double %17, double 1.800000e+02, double 3.600000e+02)
  tail call void @_ZN2cv7ellipseERKNS_17_InputOutputArrayENS_6Point_IiEENS_5Size_IiEEdddRKNS_7Scalar_IdEEiii(ptr noundef nonnull align 8 dereferenceable(24) %1, i64 %.sroa.0.0.insert.insert.i, i64 %.sroa.0.0.insert.insert.i7, double noundef %18, double noundef 0.000000e+00, double noundef 3.600000e+02, ptr noundef nonnull align 8 dereferenceable(32) %2, i32 noundef 1, i32 noundef 8, i32 noundef 0)
  ret void
}